target datalayout = "e-m:e-p270:32:32-p271:32:32-p272:64:64-i64:64-i128:128-f80:128-n8:16:32:64-S128"
target triple = "x86_64-pc-linux-gnu"

%struct.pmix_class_t = type { ptr, ptr, ptr, ptr, i32, i32, ptr, ptr, i64 }
%struct.pmix_server_globals_t = type { %struct.pmix_list_t, %struct.pmix_pointer_array_t, %struct.pmix_list_t, %struct.pmix_list_t, %struct.pmix_list_t, %struct.pmix_list_t, ptr, %struct.pmix_list_t, ptr, %struct.pmix_list_t, %struct.pmix_list_t, %struct.pmix_list_t, i64, i8, ptr, ptr, i8, i32, i32, i32, i32, i32, i32, i32, i32, i32, i32, i32, i32, i32, i32, i32, i32, i32, i32 }
%struct.pmix_pointer_array_t = type { %struct.pmix_object_t, i32, i32, i32, i32, i32, ptr, ptr }
%struct.pmix_object_t = type { %union.pthread_mutex_t, ptr, i32, %struct.pmix_tma }
%union.pthread_mutex_t = type { %struct.__pthread_mutex_s }
%struct.__pthread_mutex_s = type { i32, i32, i32, i32, i32, i16, i16, %struct.__pthread_internal_list }
%struct.__pthread_internal_list = type { ptr, ptr }
%struct.pmix_tma = type { ptr, ptr, ptr, ptr, ptr, ptr, ptr, ptr }
%struct.pmix_list_t = type { %struct.pmix_object_t, %struct.pmix_list_item_t, i64 }
%struct.pmix_list_item_t = type { %struct.pmix_object_t, ptr, ptr, i32 }
%struct.pmix_output_desc_t = type { i8, i8, i32, i8, i32, ptr, ptr, i32, ptr, i32, i8, i8, i8, i8, ptr, i32, i32 }
%struct.pmix_proc = type { [256 x i8], i32 }
%struct.timeval = type { i64, i64 }
%struct.event = type { %struct.event_callback, %union.anon.0, i32, ptr, %union.anon.2, i16, i16, %struct.timeval }
%struct.event_callback = type { %struct.anon, i16, i8, i8, %union.anon, ptr }
%struct.anon = type { ptr, ptr }
%union.anon = type { ptr }
%union.anon.0 = type { %struct.anon.1 }
%struct.anon.1 = type { ptr, ptr }
%union.anon.2 = type { %struct.anon.3 }
%struct.anon.3 = type { %struct.anon.4, %struct.timeval }
%struct.anon.4 = type { ptr, ptr }
%struct.pmix_dmdx_local_t = type { %struct.pmix_list_item_t, %struct.pmix_proc, %struct.pmix_list_t, ptr, i64 }
%struct.pmix_dmdx_request_t = type { %struct.pmix_list_item_t, %struct.event, i8, ptr, ptr, ptr, ptr }

@pmix_server_globals = external global %struct.pmix_server_globals_t, align 8
@pmix_output_info = external global [0 x %struct.pmix_output_desc_t], align 8
@.str.23 = private unnamed_addr constant [25 x i8] c"ALERT: get timeout fired\00", align 1
@.str.24 = private unnamed_addr constant [21 x i8] c"pthread_mutex_lock()\00", align 1

; Function Attrs: inlinehint nounwind uwtable
define internal void @pmix_tma_free(ptr noundef %0, ptr noundef %1) #5 {
  %3 = alloca ptr, align 8
  %4 = alloca ptr, align 8
  store ptr %0, ptr %3, align 8, !tbaa !153
  store ptr %1, ptr %4, align 8, !tbaa !3
  %5 = load ptr, ptr %3, align 8, !tbaa !153
  %6 = icmp ne ptr null, %5
  br i1 %6, label %7, label %13

7:                                                ; preds = %2
  %8 = load ptr, ptr %3, align 8, !tbaa !153
  %9 = getelementptr inbounds nuw %struct.pmix_tma, ptr %8, i32 0, i32 5
  %10 = load ptr, ptr %9, align 8, !tbaa !185
  %11 = load ptr, ptr %3, align 8, !tbaa !153
  %12 = load ptr, ptr %4, align 8, !tbaa !3
  call void %10(ptr noundef %11, ptr noundef %12)
  br label %15

13:                                               ; preds = %2
  %14 = load ptr, ptr %4, align 8, !tbaa !3
  call void @free(ptr noundef %14) #13
  br label %15

15:                                               ; preds = %13, %7
  ret void
}

; Function Attrs: inlinehint nounwind uwtable
define internal void @pmix_obj_run_destructors(ptr noundef %0) #5 {
  %2 = alloca ptr, align 8
  %3 = alloca ptr, align 8
  store ptr %0, ptr %2, align 8, !tbaa !150
  call void @llvm.lifetime.start.p0(i64 8, ptr %3) #13
  %4 = load ptr, ptr %2, align 8, !tbaa !150
  %5 = getelementptr inbounds nuw %struct.pmix_object_t, ptr %4, i32 0, i32 1
  %6 = load ptr, ptr %5, align 8, !tbaa !83
  %7 = getelementptr inbounds nuw %struct.pmix_class_t, ptr %6, i32 0, i32 7
  %8 = load ptr, ptr %7, align 8, !tbaa !171
  store ptr %8, ptr %3, align 8, !tbaa !3
  br label %9

9:                                                ; preds = %13, %1
  %10 = load ptr, ptr %3, align 8, !tbaa !3
  %11 = load ptr, ptr %10, align 8, !tbaa !3
  %12 = icmp ne ptr null, %11
  br i1 %12, label %13, label %19

13:                                               ; preds = %9
  %14 = load ptr, ptr %3, align 8, !tbaa !3
  %15 = load ptr, ptr %14, align 8, !tbaa !3
  %16 = load ptr, ptr %2, align 8, !tbaa !150
  call void %15(ptr noundef %16)
  %17 = load ptr, ptr %3, align 8, !tbaa !3
  %18 = getelementptr inbounds nuw ptr, ptr %17, i32 1
  store ptr %18, ptr %3, align 8, !tbaa !3
  br label %9, !llvm.loop !172

19:                                               ; preds = %9
  call void @llvm.lifetime.end.p0(i64 8, ptr %3) #13
  ret void
}

; Function Attrs: alwaysinline nounwind uwtable
define internal i32 @pmix_obj_update(ptr noundef %0, i32 noundef %1) #7 {
  %3 = alloca ptr, align 8
  %4 = alloca i32, align 4
  %5 = alloca i32, align 4
  store ptr %0, ptr %3, align 8, !tbaa !150
  store i32 %1, ptr %4, align 4, !tbaa !41
  call void @llvm.lifetime.start.p0(i64 4, ptr %5) #13
  %6 = load ptr, ptr %3, align 8, !tbaa !150
  %7 = getelementptr inbounds nuw %struct.pmix_object_t, ptr %6, i32 0, i32 0
  %8 = call i32 @pthread_mutex_lock(ptr noundef %7) #13
  store i32 %8, ptr %5, align 4, !tbaa !41
  %9 = load i32, ptr %5, align 4, !tbaa !41
  %10 = icmp eq i32 %9, 35
  br i1 %10, label %11, label %14

11:                                               ; preds = %2
  %12 = load i32, ptr %5, align 4, !tbaa !41
  %13 = call ptr @__errno_location() #15
  store i32 %12, ptr %13, align 4, !tbaa !41
  call void @perror(ptr noundef @.str.24)
  call void @abort() #16
  unreachable

14:                                               ; preds = %2
  %15 = load i32, ptr %4, align 4, !tbaa !41
  %16 = load ptr, ptr %3, align 8, !tbaa !150
  %17 = getelementptr inbounds nuw %struct.pmix_object_t, ptr %16, i32 0, i32 2
  %18 = load i32, ptr %17, align 8, !tbaa !84
  %19 = add nsw i32 %18, %15
  store i32 %19, ptr %17, align 8, !tbaa !84
  store i32 %19, ptr %5, align 4, !tbaa !41
  %20 = load ptr, ptr %3, align 8, !tbaa !150
  %21 = getelementptr inbounds nuw %struct.pmix_object_t, ptr %20, i32 0, i32 0
  %22 = call i32 @pthread_mutex_unlock(ptr noundef %21) #13
  %23 = load i32, ptr %5, align 4, !tbaa !41
  call void @llvm.lifetime.end.p0(i64 4, ptr %5) #13
  ret i32 %23
}

; Function Attrs: inlinehint nounwind uwtable
define internal ptr @pmix_list_remove_item(ptr noundef %0, ptr noundef %1) #5 {
  %3 = alloca ptr, align 8
  %4 = alloca ptr, align 8
  store ptr %0, ptr %3, align 8, !tbaa !166
  store ptr %1, ptr %4, align 8, !tbaa !168
  %5 = load ptr, ptr %4, align 8, !tbaa !168
  %6 = getelementptr inbounds nuw %struct.pmix_list_item_t, ptr %5, i32 0, i32 1
  %7 = load ptr, ptr %6, align 8, !tbaa !79
  %8 = load ptr, ptr %4, align 8, !tbaa !168
  %9 = getelementptr inbounds nuw %struct.pmix_list_item_t, ptr %8, i32 0, i32 2
  %10 = load ptr, ptr %9, align 8, !tbaa !169
  %11 = getelementptr inbounds nuw %struct.pmix_list_item_t, ptr %10, i32 0, i32 1
  store volatile ptr %7, ptr %11, align 8, !tbaa !79
  %12 = load ptr, ptr %4, align 8, !tbaa !168
  %13 = getelementptr inbounds nuw %struct.pmix_list_item_t, ptr %12, i32 0, i32 2
  %14 = load ptr, ptr %13, align 8, !tbaa !169
  %15 = load ptr, ptr %4, align 8, !tbaa !168
  %16 = getelementptr inbounds nuw %struct.pmix_list_item_t, ptr %15, i32 0, i32 1
  %17 = load ptr, ptr %16, align 8, !tbaa !79
  %18 = getelementptr inbounds nuw %struct.pmix_list_item_t, ptr %17, i32 0, i32 2
  store volatile ptr %14, ptr %18, align 8, !tbaa !169
  %19 = load ptr, ptr %3, align 8, !tbaa !166
  %20 = getelementptr inbounds nuw %struct.pmix_list_t, ptr %19, i32 0, i32 2
  %21 = load volatile i64, ptr %20, align 8, !tbaa !170
  %22 = add i64 %21, -1
  store volatile i64 %22, ptr %20, align 8, !tbaa !170
  %23 = load ptr, ptr %4, align 8, !tbaa !168
  %24 = getelementptr inbounds nuw %struct.pmix_list_item_t, ptr %23, i32 0, i32 2
  %25 = load ptr, ptr %24, align 8, !tbaa !169
  ret ptr %25
}

; Function Attrs: nounwind uwtable
define internal void @get_timeout(i32 noundef %0, i16 noundef signext %1, ptr noundef %2) #0 {
  %4 = alloca i32, align 4
  %5 = alloca i16, align 2
  %6 = alloca ptr, align 8
  %7 = alloca ptr, align 8
  %8 = alloca ptr, align 8
  store i32 %0, ptr %4, align 4, !tbaa !41
  store i16 %1, ptr %5, align 2, !tbaa !206
  store ptr %2, ptr %6, align 8, !tbaa !3
  call void @llvm.lifetime.start.p0(i64 8, ptr %7) #13
  %9 = load ptr, ptr %6, align 8, !tbaa !3
  store ptr %9, ptr %7, align 8, !tbaa !3
  %10 = load i32, ptr getelementptr inbounds nuw (%struct.pmix_server_globals_t, ptr @pmix_server_globals, i32 0, i32 17), align 4, !tbaa !31
  %11 = icmp sge i32 %10, 0
  br i1 %11, label %12, label %24

12:                                               ; preds = %3
  %13 = load i32, ptr getelementptr inbounds nuw (%struct.pmix_server_globals_t, ptr @pmix_server_globals, i32 0, i32 17), align 4, !tbaa !31
  %14 = icmp slt i32 %13, 64
  br i1 %14, label %15, label %24

15:                                               ; preds = %12
  %16 = load i32, ptr getelementptr inbounds nuw (%struct.pmix_server_globals_t, ptr @pmix_server_globals, i32 0, i32 17), align 4, !tbaa !31
  %17 = sext i32 %16 to i64
  %18 = getelementptr inbounds [0 x %struct.pmix_output_desc_t], ptr @pmix_output_info, i64 0, i64 %17
  %19 = getelementptr inbounds nuw %struct.pmix_output_desc_t, ptr %18, i32 0, i32 2
  %20 = load i32, ptr %19, align 4, !tbaa !39
  %21 = icmp sge i32 %20, 2
  br i1 %21, label %22, label %24

22:                                               ; preds = %15
  %23 = load i32, ptr getelementptr inbounds nuw (%struct.pmix_server_globals_t, ptr @pmix_server_globals, i32 0, i32 17), align 4, !tbaa !31
  call void (i32, ptr, ...) @pmix_output(i32 noundef %23, ptr noundef @.str.23)
  br label %24

24:                                               ; preds = %22, %15, %12, %3
  %25 = load ptr, ptr %7, align 8, !tbaa !3
  %26 = getelementptr inbounds nuw %struct.pmix_dmdx_request_t, ptr %25, i32 0, i32 5
  %27 = load ptr, ptr %26, align 8, !tbaa !191
  %28 = icmp ne ptr null, %27
  br i1 %28, label %29, label %36

29:                                               ; preds = %24
  %30 = load ptr, ptr %7, align 8, !tbaa !3
  %31 = getelementptr inbounds nuw %struct.pmix_dmdx_request_t, ptr %30, i32 0, i32 5
  %32 = load ptr, ptr %31, align 8, !tbaa !191
  %33 = load ptr, ptr %7, align 8, !tbaa !3
  %34 = getelementptr inbounds nuw %struct.pmix_dmdx_request_t, ptr %33, i32 0, i32 6
  %35 = load ptr, ptr %34, align 8, !tbaa !192
  call void %32(i32 noundef -24, ptr noundef null, i64 noundef 0, ptr noundef %35, ptr noundef null, ptr noundef null)
  br label %36

36:                                               ; preds = %29, %24
  %37 = load ptr, ptr %7, align 8, !tbaa !3
  %38 = getelementptr inbounds nuw %struct.pmix_dmdx_request_t, ptr %37, i32 0, i32 2
  store i8 0, ptr %38, align 8, !tbaa !176
  %39 = load ptr, ptr %7, align 8, !tbaa !3
  %40 = getelementptr inbounds nuw %struct.pmix_dmdx_request_t, ptr %39, i32 0, i32 3
  %41 = load ptr, ptr %40, align 8, !tbaa !197
  %42 = getelementptr inbounds nuw %struct.pmix_dmdx_local_t, ptr %41, i32 0, i32 2
  %43 = load ptr, ptr %7, align 8, !tbaa !3
  %44 = getelementptr inbounds nuw %struct.pmix_dmdx_request_t, ptr %43, i32 0, i32 0
  %45 = call ptr @pmix_list_remove_item(ptr noundef %42, ptr noundef %44)
  br label %46

46:                                               ; preds = %36
  call void @llvm.lifetime.start.p0(i64 8, ptr %8) #13
  %47 = load ptr, ptr %7, align 8, !tbaa !3
  store ptr %47, ptr %8, align 8, !tbaa !150
  %48 = load ptr, ptr %8, align 8, !tbaa !150
  %49 = call i32 @pmix_obj_update(ptr noundef %48, i32 noundef -1)
  %50 = icmp eq i32 0, %49
  br i1 %50, label %51, label %65

51:                                               ; preds = %46
  %52 = load ptr, ptr %8, align 8, !tbaa !150
  call void @pmix_obj_run_destructors(ptr noundef %52)
  %53 = load ptr, ptr %8, align 8, !tbaa !150
  %54 = getelementptr inbounds nuw %struct.pmix_object_t, ptr %53, i32 0, i32 3
  %55 = getelementptr inbounds nuw %struct.pmix_tma, ptr %54, i32 0, i32 5
  %56 = load ptr, ptr %55, align 8, !tbaa !152
  %57 = icmp ne ptr null, %56
  br i1 %57, label %58, label %62

58:                                               ; preds = %51
  %59 = load ptr, ptr %8, align 8, !tbaa !150
  %60 = getelementptr inbounds nuw %struct.pmix_object_t, ptr %59, i32 0, i32 3
  %61 = load ptr, ptr %7, align 8, !tbaa !3
  call void @pmix_tma_free(ptr noundef %60, ptr noundef %61)
  br label %64

62:                                               ; preds = %51
  %63 = load ptr, ptr %7, align 8, !tbaa !3
  call void @free(ptr noundef %63) #13
  br label %64

64:                                               ; preds = %62, %58
  store ptr null, ptr %7, align 8, !tbaa !3
  br label %65

65:                                               ; preds = %64, %46
  call void @llvm.lifetime.end.p0(i64 8, ptr %8) #13
  br label %66

66:                                               ; preds = %65
  br label %67

67:                                               ; preds = %66
  call void @llvm.lifetime.end.p0(i64 8, ptr %7) #13
  ret void
}