; Function Attrs: nounwind uwtable
define internal void @get_timeout(i32 %0, i16 signext %1, ptr noundef initializes((272, 273)) %2) #1 {
  %4 = load i32, ptr getelementptr inbounds nuw (i8, ptr @pmix_server_globals, i64 2660), align 4, !tbaa !24
  %or.cond = icmp ult i32 %4, 64
  br i1 %or.cond, label %5, label %11

5:                                                ; preds = %3
  %6 = zext nneg i32 %4 to i64
  %7 = getelementptr inbounds nuw [0 x %struct.pmix_output_desc_t], ptr @pmix_output_info, i64 0, i64 %6, i32 2
  %8 = load i32, ptr %7, align 4, !tbaa !32
  %9 = icmp sgt i32 %8, 1
  br i1 %9, label %10, label %11

10:                                               ; preds = %5
  tail call void (i32, ptr, ...) @pmix_output(i32 noundef %4, ptr noundef nonnull @.str.23) #15
  br label %11

11:                                               ; preds = %10, %5, %3
  %12 = getelementptr inbounds nuw i8, ptr %2, i64 296
  %13 = load ptr, ptr %12, align 8, !tbaa !156
  %.not = icmp eq ptr %13, null
  br i1 %.not, label %17, label %14

14:                                               ; preds = %11
  %15 = getelementptr inbounds nuw i8, ptr %2, i64 304
  %16 = load ptr, ptr %15, align 8, !tbaa !157
  tail call void %13(i32 noundef -24, ptr noundef null, i64 noundef 0, ptr noundef %16, ptr noundef null, ptr noundef null) #15
  br label %17

17:                                               ; preds = %14, %11
  %18 = getelementptr inbounds nuw i8, ptr %2, i64 272
  store i8 0, ptr %18, align 8, !tbaa !159
  %19 = getelementptr inbounds nuw i8, ptr %2, i64 280
  %20 = load ptr, ptr %19, align 8, !tbaa !155
  %21 = getelementptr inbounds nuw i8, ptr %2, i64 120
  %22 = load ptr, ptr %21, align 8, !tbaa !63
  %23 = getelementptr inbounds nuw i8, ptr %2, i64 128
  %24 = load ptr, ptr %23, align 8, !tbaa !83
  %25 = getelementptr inbounds nuw i8, ptr %24, i64 120
  store volatile ptr %22, ptr %25, align 8, !tbaa !63
  %26 = getelementptr inbounds nuw i8, ptr %22, i64 128
  store volatile ptr %24, ptr %26, align 8, !tbaa !83
  %27 = getelementptr inbounds nuw i8, ptr %20, i64 672
  %28 = load volatile i64, ptr %27, align 8, !tbaa !84
  %29 = add i64 %28, -1
  store volatile i64 %29, ptr %27, align 8, !tbaa !84
  %30 = tail call i32 @pthread_mutex_lock(ptr noundef nonnull %2) #15
  %31 = icmp eq i32 %30, 35
  br i1 %31, label %32, label %pmix_obj_update.exit

32:                                               ; preds = %17
  %33 = tail call ptr @__errno_location() #17
  store i32 35, ptr %33, align 4, !tbaa !34
  tail call void @perror(ptr noundef nonnull @.str.24) #18
  tail call void @abort() #19
  unreachable

pmix_obj_update.exit:                             ; preds = %17
  %34 = getelementptr inbounds nuw i8, ptr %2, i64 48
  %35 = load i32, ptr %34, align 8, !tbaa !74
  %36 = add nsw i32 %35, -1
  store i32 %36, ptr %34, align 8, !tbaa !74
  %37 = tail call i32 @pthread_mutex_unlock(ptr noundef nonnull %2) #15
  %38 = icmp eq i32 %36, 0
  br i1 %38, label %39, label %53

39:                                               ; preds = %pmix_obj_update.exit
  %40 = getelementptr inbounds nuw i8, ptr %2, i64 40
  %41 = load ptr, ptr %40, align 8, !tbaa !73
  %42 = getelementptr inbounds nuw i8, ptr %41, i64 48
  %43 = load ptr, ptr %42, align 8, !tbaa !98
  %44 = load ptr, ptr %43, align 8, !tbaa !76
  %.not6.i = icmp eq ptr %44, null
  br i1 %.not6.i, label %pmix_obj_run_destructors.exit, label %.lr.ph.i

.lr.ph.i:                                         ; preds = %39, %.lr.ph.i
  %45 = phi ptr [ %47, %.lr.ph.i ], [ %44, %39 ]
  %.07.i = phi ptr [ %46, %.lr.ph.i ], [ %43, %39 ]
  tail call void %45(ptr noundef nonnull %2) #15
  %46 = getelementptr inbounds nuw i8, ptr %.07.i, i64 8
  %47 = load ptr, ptr %46, align 8, !tbaa !76
  %.not.i = icmp eq ptr %47, null
  br i1 %.not.i, label %pmix_obj_run_destructors.exit, label %.lr.ph.i, !llvm.loop !99

pmix_obj_run_destructors.exit:                    ; preds = %.lr.ph.i, %39
  %48 = getelementptr inbounds nuw i8, ptr %2, i64 96
  %49 = load ptr, ptr %48, align 8, !tbaa !144
  %.not16 = icmp eq ptr %49, null
  br i1 %.not16, label %52, label %50

50:                                               ; preds = %pmix_obj_run_destructors.exit
  %51 = getelementptr inbounds nuw i8, ptr %2, i64 56
  tail call void %49(ptr noundef nonnull %51, ptr noundef nonnull %2) #15
  br label %53

52:                                               ; preds = %pmix_obj_run_destructors.exit
  tail call void @free(ptr noundef nonnull %2) #15
  br label %53

53:                                               ; preds = %50, %52, %pmix_obj_update.exit
  ret void
}